target datalayout = "e-m:e-p270:32:32-p271:32:32-p272:64:64-i64:64-i128:128-f80:128-n8:16:32:64-S128"
target triple = "x86_64-pc-linux-gnu"

%"class.grpc_core::EndpointAddresses" = type { %"class.std::vector", %"class.grpc_core::ChannelArgs" }
%"class.std::vector" = type { %"struct.std::_Vector_base" }
%"struct.std::_Vector_base" = type { %"struct.std::_Vector_base<grpc_resolved_address, std::allocator<grpc_resolved_address>>::_Vector_impl" }
%"struct.std::_Vector_base<grpc_resolved_address, std::allocator<grpc_resolved_address>>::_Vector_impl" = type { %"struct.std::_Vector_base<grpc_resolved_address, std::allocator<grpc_resolved_address>>::_Vector_impl_data" }
%"struct.std::_Vector_base<grpc_resolved_address, std::allocator<grpc_resolved_address>>::_Vector_impl_data" = type { ptr, ptr, ptr }
%"class.grpc_core::ChannelArgs" = type { %"class.grpc_core::AVL" }
%"class.grpc_core::AVL" = type { %"class.grpc_core::RefCountedPtr" }
%"class.grpc_core::RefCountedPtr" = type { ptr }

; Function Attrs: mustprogress uwtable
define noundef nonnull align 8 dereferenceable(32) ptr @_ZN9grpc_core17EndpointAddressesaSERKS0_(ptr noundef nonnull align 8 dereferenceable(32) %0, ptr noundef nonnull align 8 dereferenceable(32) %1) #4 align 2 {
  %3 = alloca ptr, align 8
  %4 = alloca ptr, align 8
  %5 = alloca ptr, align 8
  store ptr %0, ptr %4, align 8, !tbaa !3
  store ptr %1, ptr %5, align 8, !tbaa !3
  %6 = load ptr, ptr %4, align 8
  %7 = load ptr, ptr %5, align 8, !tbaa !3
  %8 = icmp eq ptr %7, %6
  br i1 %8, label %9, label %10

9:                                                ; preds = %2
  store ptr %6, ptr %3, align 8
  br label %19

10:                                               ; preds = %2
  %11 = load ptr, ptr %5, align 8, !tbaa !3
  %12 = getelementptr inbounds nuw %"class.grpc_core::EndpointAddresses", ptr %11, i32 0, i32 0
  %13 = getelementptr inbounds nuw %"class.grpc_core::EndpointAddresses", ptr %6, i32 0, i32 0
  %14 = call noundef nonnull align 8 dereferenceable(24) ptr @_ZNSt6vectorI21grpc_resolved_addressSaIS0_EEaSERKS2_(ptr noundef nonnull align 8 dereferenceable(24) %13, ptr noundef nonnull align 8 dereferenceable(24) %12)
  %15 = load ptr, ptr %5, align 8, !tbaa !3
  %16 = getelementptr inbounds nuw %"class.grpc_core::EndpointAddresses", ptr %15, i32 0, i32 1
  %17 = getelementptr inbounds nuw %"class.grpc_core::EndpointAddresses", ptr %6, i32 0, i32 1
  %18 = call noundef nonnull align 8 dereferenceable(8) ptr @_ZN9grpc_core11ChannelArgsaSERKS0_(ptr noundef nonnull align 8 dereferenceable(8) %17, ptr noundef nonnull align 8 dereferenceable(8) %16)
  store ptr %6, ptr %3, align 8
  br label %19

19:                                               ; preds = %10, %9
  %20 = load ptr, ptr %3, align 8
  ret ptr %20
}