; Function Attrs: mustprogress uwtable
define noundef nonnull align 8 dereferenceable(32) ptr @_ZN9grpc_core17EndpointAddressesaSERKS0_(ptr noundef nonnull returned align 8 dereferenceable(32) %0, ptr noundef nonnull align 8 dereferenceable(32) %1) local_unnamed_addr #3 align 2 {
  %3 = icmp eq ptr %1, %0
  br i1 %3, label %9, label %4

4:                                                ; preds = %2
  %5 = tail call noundef nonnull align 8 dereferenceable(24) ptr @_ZNSt6vectorI21grpc_resolved_addressSaIS0_EEaSERKS2_(ptr noundef nonnull align 8 dereferenceable(24) %0, ptr noundef nonnull align 8 dereferenceable(24) %1)
  %6 = getelementptr inbounds nuw i8, ptr %1, i64 24
  %7 = getelementptr inbounds nuw i8, ptr %0, i64 24
  %8 = tail call noundef nonnull align 8 dereferenceable(8) ptr @_ZN9grpc_core11ChannelArgsaSERKS0_(ptr noundef nonnull align 8 dereferenceable(8) %7, ptr noundef nonnull align 8 dereferenceable(8) %6)
  br label %9

9:                                                ; preds = %2, %4
  ret ptr %0
}